(dp0
S'targetPath'
p1
S'/Users/dengxiliang/Desktop'
p2
sS'projectPath'
p3
S'/Users/dengxiliang/Desktop/DDForm'
p4
sS'hasWorkspace'
p5
I00
sS'targetName'
p6
S'DDForm'
p7
sS'projectName'
p8
S'DDForm'
p9
s.